Certificate:
    Data:
        Version: 3 (0x2)
        Serial Number: 1 (0x1)
    Signature Algorithm: sha256WithRSAEncryption
        Issuer: C=BY, ST=Minsk, L=Minsk, O=1 Vhost Tool Root CA, OU=devs, CN=1 Vhost Tool Root CA/emailAddress=me@localhost
        Validity
            Not Before: Mar  9 08:20:49 2017 GMT
            Not After : Mar  9 08:20:49 2018 GMT
        Subject: C=BY, ST=Minsk, O=1 Vhost Tool Root CA, OU=dev, CN=ssl.lan/emailAddress=me@me
        Subject Public Key Info:
            Public Key Algorithm: rsaEncryption
                Public-Key: (2048 bit)
                Modulus:
                    00:aa:3e:46:74:92:b1:06:88:06:6a:a2:e8:be:4e:
                    8d:f8:82:10:bf:36:3b:0b:7a:cb:3c:d4:e4:3c:39:
                    36:c7:4c:10:69:54:72:b7:3a:16:0f:b7:e8:07:95:
                    13:1e:7b:37:1f:50:00:78:62:aa:d1:04:aa:d9:7f:
                    aa:07:49:5c:cd:40:70:e1:77:62:11:e2:7e:d3:93:
                    3d:8c:c6:29:d7:81:05:1e:de:af:c7:4b:68:d2:db:
                    c2:b3:9c:47:93:1a:d0:04:ff:0f:53:26:24:f8:56:
                    93:01:58:f7:7e:48:32:f0:0f:b6:66:2f:39:42:ec:
                    a6:d2:7b:1f:79:6b:62:2b:9f:3d:22:83:7e:6a:98:
                    df:b3:92:cc:66:48:6f:f6:78:9a:9d:96:a4:58:83:
                    12:80:73:c4:c4:8c:ca:4e:1a:39:36:92:aa:cf:0a:
                    f4:93:b2:2e:1d:d8:ea:29:e3:68:3d:b0:51:ef:09:
                    b5:30:4a:a8:02:0c:d8:5c:5c:27:b7:c4:43:74:79:
                    14:e7:57:31:05:a3:09:f4:3b:88:90:48:6b:da:93:
                    f3:4a:06:19:40:71:b8:14:e7:35:79:4a:8c:d4:9e:
                    74:15:a9:72:8c:e7:4b:e4:4b:27:38:5d:83:d6:7f:
                    aa:f9:88:2b:17:87:69:2e:cb:bd:e2:92:ba:48:40:
                    b5:e7
                Exponent: 65537 (0x10001)
        X509v3 extensions:
            X509v3 Basic Constraints: 
                CA:FALSE
            Netscape Comment: 
                OpenSSL Generated Certificate
            X509v3 Subject Key Identifier: 
                1F:4E:D0:2C:85:12:35:50:F2:2D:52:72:E3:61:25:45:BB:E2:B8:E1
            X509v3 Authority Key Identifier: 
                keyid:47:59:80:0A:F3:B3:25:38:B3:04:10:80:E2:FC:13:D4:2A:65:5A:C1

    Signature Algorithm: sha256WithRSAEncryption
         07:bc:bf:c7:33:49:85:9d:65:2e:95:92:23:3c:d0:61:e8:20:
         c6:3b:f4:f2:5c:b2:42:0e:5a:7f:70:a5:cd:56:aa:b5:fc:9f:
         ca:73:b3:84:56:3c:49:1b:64:9b:32:80:c1:49:4a:a6:0b:2e:
         51:46:3d:22:73:b5:bf:54:d7:af:39:af:ba:0d:89:d7:85:20:
         86:85:94:25:33:d6:6c:eb:40:d2:12:bc:95:0c:ba:c4:87:29:
         f6:94:2b:83:c0:da:7a:89:64:96:2a:b8:c1:fc:58:b4:5d:f8:
         a7:06:a1:62:36:76:0c:82:80:cc:3d:f8:d4:c2:39:54:86:0f:
         e2:27:de:bd:e0:1f:b2:90:c7:ab:06:ee:a6:2a:44:21:42:db:
         5f:ac:1b:b5:4f:70:50:88:93:d8:3a:a1:42:ab:75:9d:19:2d:
         21:1b:b8:47:80:9d:b6:06:7f:77:3d:06:21:60:d9:81:0b:18:
         06:00:c2:b4:0c:f8:f9:96:c3:fa:73:42:ae:0e:02:a6:90:b8:
         83:35:ea:fa:fc:fd:31:4f:98:92:6f:4a:46:0c:a7:4a:85:41:
         fd:74:9b:ab:82:e3:ca:34:4e:52:3f:37:0b:c7:53:21:65:13:
         90:41:59:a0:a0:d4:ec:b7:1a:26:16:75:2c:aa:bf:45:33:fc:
         69:d0:e8:9f
-----BEGIN CERTIFICATE-----
MIIEADCCAuigAwIBAgIBATANBgkqhkiG9w0BAQsFADCBlzELMAkGA1UEBhMCQlkx
DjAMBgNVBAgMBU1pbnNrMQ4wDAYDVQQHDAVNaW5zazEdMBsGA1UECgwUMSBWaG9z
dCBUb29sIFJvb3QgQ0ExDTALBgNVBAsMBGRldnMxHTAbBgNVBAMMFDEgVmhvc3Qg
VG9vbCBSb290IENBMRswGQYJKoZIhvcNAQkBFgxtZUBsb2NhbGhvc3QwHhcNMTcw
MzA5MDgyMDQ5WhcNMTgwMzA5MDgyMDQ5WjByMQswCQYDVQQGEwJCWTEOMAwGA1UE
CAwFTWluc2sxHTAbBgNVBAoMFDEgVmhvc3QgVG9vbCBSb290IENBMQwwCgYDVQQL
DANkZXYxEDAOBgNVBAMMB3NzbC5sYW4xFDASBgkqhkiG9w0BCQEWBW1lQG1lMIIB
IjANBgkqhkiG9w0BAQEFAAOCAQ8AMIIBCgKCAQEAqj5GdJKxBogGaqLovk6N+IIQ
vzY7C3rLPNTkPDk2x0wQaVRytzoWD7foB5UTHns3H1AAeGKq0QSq2X+qB0lczUBw
4XdiEeJ+05M9jMYp14EFHt6vx0to0tvCs5xHkxrQBP8PUyYk+FaTAVj3fkgy8A+2
Zi85Quym0nsfeWtiK589IoN+apjfs5LMZkhv9nianZakWIMSgHPExIzKTho5NpKq
zwr0k7IuHdjqKeNoPbBR7wm1MEqoAgzYXFwnt8RDdHkU51cxBaMJ9DuIkEhr2pPz
SgYZQHG4FOc1eUqM1J50FalyjOdL5EsnOF2D1n+q+YgrF4dpLsu94pK6SEC15wID
AQABo3sweTAJBgNVHRMEAjAAMCwGCWCGSAGG+EIBDQQfFh1PcGVuU1NMIEdlbmVy
YXRlZCBDZXJ0aWZpY2F0ZTAdBgNVHQ4EFgQUH07QLIUSNVDyLVJy42ElRbviuOEw
HwYDVR0jBBgwFoAUR1mACvOzJTizBBCA4vwT1CplWsEwDQYJKoZIhvcNAQELBQAD
ggEBAAe8v8czSYWdZS6VkiM80GHoIMY79PJcskIOWn9wpc1WqrX8n8pzs4RWPEkb
ZJsygMFJSqYLLlFGPSJztb9U1685r7oNideFIIaFlCUz1mzrQNISvJUMusSHKfaU
K4PA2nqJZJYquMH8WLRd+KcGoWI2dgyCgMw9+NTCOVSGD+In3r3gH7KQx6sG7qYq
RCFC21+sG7VPcFCIk9g6oUKrdZ0ZLSEbuEeAnbYGf3c9BiFg2YELGAYAwrQM+PmW
w/pzQq4OAqaQuIM16vr8/TFPmJJvSkYMp0qFQf10m6uC48o0TlI/NwvHUyFlE5BB
WaCg1Oy3GiYWdSyqv0Uz/GnQ6J8=
-----END CERTIFICATE-----
